; Function Attrs: mustprogress nofree norecurse nosync nounwind willreturn memory(read, inaccessiblemem: none) uwtable
define i64 @_ZN2cv6detail8resultTlERKSt6vectorINS_6Point_IiEESaIS3_EE(ptr noundef nonnull readonly align 8 captures(none) dereferenceable(24) %0) local_unnamed_addr #9 {
  %2 = getelementptr inbounds nuw i8, ptr %0, i64 8
  %3 = load ptr, ptr %2, align 8, !tbaa !40
  %4 = load ptr, ptr %0, align 8, !tbaa !43
  %.not = icmp eq ptr %3, %4
  br i1 %.not, label %._crit_edge, label %.lr.ph.preheader

.lr.ph.preheader:                                 ; preds = %1
  %5 = ptrtoint ptr %3 to i64
  %6 = ptrtoint ptr %4 to i64
  %7 = sub i64 %5, %6
  %8 = ashr exact i64 %7, 3
  %umax = tail call i64 @llvm.umax.i64(i64 %8, i64 1)
  br label %.lr.ph

._crit_edge.loopexit:                             ; preds = %.lr.ph
  %9 = zext i32 %.sroa.speculated to i64
  %10 = shl nuw i64 %9, 32
  %11 = zext i32 %.sroa.speculated10 to i64
  %12 = or disjoint i64 %10, %11
  br label %._crit_edge

._crit_edge:                                      ; preds = %._crit_edge.loopexit, %1
  %.sroa.0.0.insert.insert = phi i64 [ 9223372034707292159, %1 ], [ %12, %._crit_edge.loopexit ]
  ret i64 %.sroa.0.0.insert.insert

.lr.ph:                                           ; preds = %.lr.ph.preheader, %.lr.ph
  %.017 = phi i64 [ %17, %.lr.ph ], [ 0, %.lr.ph.preheader ]
  %.sroa.5.016 = phi i32 [ %.sroa.speculated, %.lr.ph ], [ 2147483647, %.lr.ph.preheader ]
  %.sroa.0.015 = phi i32 [ %.sroa.speculated10, %.lr.ph ], [ 2147483647, %.lr.ph.preheader ]
  %13 = getelementptr inbounds nuw %"class.cv::Point_", ptr %4, i64 %.017
  %14 = load i32, ptr %13, align 4, !tbaa !3
  %.sroa.speculated10 = tail call i32 @llvm.smin.i32(i32 %14, i32 %.sroa.0.015)
  %15 = getelementptr inbounds nuw i8, ptr %13, i64 4
  %16 = load i32, ptr %15, align 4, !tbaa !3
  %.sroa.speculated = tail call i32 @llvm.smin.i32(i32 %16, i32 %.sroa.5.016)
  %17 = add nuw i64 %.017, 1
  %exitcond.not = icmp eq i64 %17, %umax
  br i1 %exitcond.not, label %._crit_edge.loopexit, label %.lr.ph, !llvm.loop !54
}